; Function Attrs: mustprogress uwtable
define hidden i32 @mbedtls_gcm_auth_decrypt(ptr noundef %0, i64 noundef %1, ptr noundef readonly captures(none) %2, i64 noundef %3, ptr noundef readonly captures(none) %4, i64 noundef %5, ptr noundef readonly captures(none) %6, i64 noundef %7, ptr noundef %8, ptr noundef %9) local_unnamed_addr #2 {
  %11 = alloca i64, align 8
  %12 = alloca [16 x i8], align 16
  call void @llvm.lifetime.start.p0(i64 16, ptr nonnull %12) #8
  call void @llvm.lifetime.start.p0(i64 8, ptr nonnull %11) #8
  %13 = tail call i32 @mbedtls_gcm_starts(ptr noundef %0, i32 noundef 0, ptr noundef readonly %2, i64 noundef %3)
  %.not.i = icmp eq i32 %13, 0
  br i1 %.not.i, label %14, label %mbedtls_gcm_crypt_and_tag.exit.thread

14:                                               ; preds = %10
  %15 = tail call i32 @mbedtls_gcm_update_ad(ptr noundef %0, ptr noundef readonly %4, i64 noundef %5)
  %.not23.i = icmp eq i32 %15, 0
  br i1 %.not23.i, label %16, label %mbedtls_gcm_crypt_and_tag.exit.thread

16:                                               ; preds = %14
  %17 = call i32 @mbedtls_gcm_update(ptr noundef %0, ptr noundef %8, i64 noundef %1, ptr noundef %9, i64 noundef %1, ptr noundef nonnull %11)
  %.not24.i = icmp eq i32 %17, 0
  br i1 %.not24.i, label %mbedtls_gcm_crypt_and_tag.exit, label %mbedtls_gcm_crypt_and_tag.exit.thread

mbedtls_gcm_crypt_and_tag.exit.thread:            ; preds = %10, %14, %16
  %.0.i.ph = phi i32 [ %17, %16 ], [ %15, %14 ], [ %13, %10 ]
  call void @llvm.lifetime.end.p0(i64 8, ptr nonnull %11) #8
  br label %._crit_edge.thread

mbedtls_gcm_crypt_and_tag.exit:                   ; preds = %16
  %18 = call i32 @mbedtls_gcm_finish(ptr noundef %0, ptr poison, i64 poison, ptr noundef nonnull %11, ptr noundef nonnull %12, i64 noundef %7)
  call void @llvm.lifetime.end.p0(i64 8, ptr nonnull %11) #8
  %.not = icmp eq i32 %18, 0
  br i1 %.not, label %.preheader, label %._crit_edge.thread

.preheader:                                       ; preds = %mbedtls_gcm_crypt_and_tag.exit
  %.not28 = icmp eq i64 %7, 0
  br i1 %.not28, label %._crit_edge.thread, label %.lr.ph

.lr.ph:                                           ; preds = %.preheader, %.lr.ph
  %.027 = phi i32 [ %25, %.lr.ph ], [ 0, %.preheader ]
  %.02026 = phi i64 [ %26, %.lr.ph ], [ 0, %.preheader ]
  %19 = getelementptr inbounds nuw i8, ptr %6, i64 %.02026
  %20 = load i8, ptr %19, align 1, !tbaa !15
  %21 = getelementptr inbounds nuw [16 x i8], ptr %12, i64 0, i64 %.02026
  %22 = load i8, ptr %21, align 1, !tbaa !15
  %23 = xor i8 %22, %20
  %24 = zext i8 %23 to i32
  %25 = or i32 %.027, %24
  %26 = add nuw i64 %.02026, 1
  %exitcond.not = icmp eq i64 %26, %7
  br i1 %exitcond.not, label %._crit_edge, label %.lr.ph, !llvm.loop !40

._crit_edge:                                      ; preds = %.lr.ph
  %27 = icmp eq i32 %25, 0
  br i1 %27, label %._crit_edge.thread, label %28

28:                                               ; preds = %._crit_edge
  tail call void @mbedtls_platform_zeroize(ptr noundef %9, i64 noundef %1)
  br label %._crit_edge.thread

._crit_edge.thread:                               ; preds = %.preheader, %mbedtls_gcm_crypt_and_tag.exit.thread, %._crit_edge, %mbedtls_gcm_crypt_and_tag.exit, %28
  %.021 = phi i32 [ -18, %28 ], [ %18, %mbedtls_gcm_crypt_and_tag.exit ], [ 0, %._crit_edge ], [ %.0.i.ph, %mbedtls_gcm_crypt_and_tag.exit.thread ], [ 0, %.preheader ]
  call void @llvm.lifetime.end.p0(i64 16, ptr nonnull %12) #8
  ret i32 %.021
}